target datalayout = "e-m:e-p270:32:32-p271:32:32-p272:64:64-i64:64-i128:128-f80:128-n8:16:32:64-S128"
target triple = "x86_64-pc-linux-gnu"

; Function Attrs: mustprogress uwtable
define noundef zeroext i1 @_Z11correct_boxP8_IO_FILElPA3_f(ptr noundef %0, i64 noundef %1, ptr noundef %2) #3 {
  %4 = alloca ptr, align 8
  %5 = alloca i64, align 8
  %6 = alloca ptr, align 8
  %7 = alloca i32, align 4
  %8 = alloca i32, align 4
  %9 = alloca i32, align 4
  %10 = alloca i8, align 1
  store ptr %0, ptr %4, align 8, !tbaa !39
  store i64 %1, ptr %5, align 8, !tbaa !21
  store ptr %2, ptr %6, align 8, !tbaa !48
  call void @llvm.lifetime.start.p0(i64 4, ptr %7) #5
  call void @llvm.lifetime.start.p0(i64 4, ptr %8) #5
  call void @llvm.lifetime.start.p0(i64 4, ptr %9) #5
  call void @llvm.lifetime.start.p0(i64 1, ptr %10) #5
  %11 = load ptr, ptr %4, align 8, !tbaa !39
  %12 = load i64, ptr %5, align 8, !tbaa !21
  %13 = load ptr, ptr %6, align 8, !tbaa !48
  %14 = call noundef i32 @_ZL16correct_box_elemP8_IO_FILElPA3_fii(ptr noundef %11, i64 noundef %12, ptr noundef %13, i32 noundef 2, i32 noundef 1)
  store i32 %14, ptr %7, align 4, !tbaa !36
  %15 = load ptr, ptr %4, align 8, !tbaa !39
  %16 = load i64, ptr %5, align 8, !tbaa !21
  %17 = load ptr, ptr %6, align 8, !tbaa !48
  %18 = call noundef i32 @_ZL16correct_box_elemP8_IO_FILElPA3_fii(ptr noundef %15, i64 noundef %16, ptr noundef %17, i32 noundef 2, i32 noundef 0)
  store i32 %18, ptr %8, align 4, !tbaa !36
  %19 = load ptr, ptr %4, align 8, !tbaa !39
  %20 = load i64, ptr %5, align 8, !tbaa !21
  %21 = load ptr, ptr %6, align 8, !tbaa !48
  %22 = call noundef i32 @_ZL16correct_box_elemP8_IO_FILElPA3_fii(ptr noundef %19, i64 noundef %20, ptr noundef %21, i32 noundef 1, i32 noundef 0)
  store i32 %22, ptr %9, align 4, !tbaa !36
  %23 = load i32, ptr %7, align 4, !tbaa !36
  %24 = icmp ne i32 %23, 0
  br i1 %24, label %31, label %25

25:                                               ; preds = %3
  %26 = load i32, ptr %8, align 4, !tbaa !36
  %27 = icmp ne i32 %26, 0
  br i1 %27, label %31, label %28

28:                                               ; preds = %25
  %29 = load i32, ptr %9, align 4, !tbaa !36
  %30 = icmp ne i32 %29, 0
  br label %31

31:                                               ; preds = %28, %25, %3
  %32 = phi i1 [ true, %25 ], [ true, %3 ], [ %30, %28 ]
  %33 = zext i1 %32 to i8
  store i8 %33, ptr %10, align 1, !tbaa !51
  %34 = load i8, ptr %10, align 1, !tbaa !51, !range !53, !noundef !54
  %35 = trunc i8 %34 to i1
  call void @llvm.lifetime.end.p0(i64 1, ptr %10) #5
  call void @llvm.lifetime.end.p0(i64 4, ptr %9) #5
  call void @llvm.lifetime.end.p0(i64 4, ptr %8) #5
  call void @llvm.lifetime.end.p0(i64 4, ptr %7) #5
  ret i1 %35
}