; Function Attrs: mustprogress uwtable
define noundef zeroext i1 @_Z11correct_boxP8_IO_FILElPA3_f(ptr noundef %0, i64 noundef %1, ptr noundef %2) local_unnamed_addr #1 {
  %4 = tail call fastcc noundef i32 @_ZL16correct_box_elemP8_IO_FILElPA3_fii(ptr noundef %0, i64 noundef %1, ptr noundef %2, i32 noundef 2, i32 noundef 1)
  %5 = tail call fastcc noundef i32 @_ZL16correct_box_elemP8_IO_FILElPA3_fii(ptr noundef %0, i64 noundef %1, ptr noundef %2, i32 noundef 2, i32 noundef 0)
  %6 = tail call fastcc noundef i32 @_ZL16correct_box_elemP8_IO_FILElPA3_fii(ptr noundef %0, i64 noundef %1, ptr noundef %2, i32 noundef 1, i32 noundef 0)
  %7 = or i32 %5, %4
  %8 = or i32 %7, %6
  %spec.select = icmp ne i32 %8, 0
  ret i1 %spec.select
}